target datalayout = "e-m:e-p270:32:32-p271:32:32-p272:64:64-i64:64-i128:128-f80:128-n8:16:32:64-S128"
target triple = "x86_64-unknown-linux-gnu"

%struct.redisServer = type { i32, i64, ptr, ptr, ptr, i32, i32, i32, i32, i32, ptr, ptr, ptr, ptr, ptr, ptr, i32, i32, i64, i32, i32, i32, i32, ptr, i32, i32, [41 x i8], i32, i64, i32, i32, i32, ptr, ptr, i32, i32, i64, ptr, ptr, ptr, ptr, [2 x i32], i32, i32, i32, i32, i32, [16 x ptr], i32, ptr, ptr, i32, [8 x %struct.connListener], i32, %struct.connListener, ptr, ptr, ptr, ptr, ptr, ptr, ptr, ptr, ptr, ptr, i32, ptr, i32, ptr, [3 x %struct.pause_event], [256 x i8], ptr, i64, i32, i32, i32, i32, i64, i32, i32, i32, i32, i32, i64, i64, i64, i64, i64, i64, i64, i64, i64, double, i64, i64, i64, i64, i64, i64, i64, i64, i64, i64, i64, i64, i64, i64, i64, i64, i64, i64, i64, i64, double, i64, i64, i64, i64, i64, ptr, i64, i64, i64, %struct.malloc_stats, i64, i64, i64, i64, i64, i64, i64, i64, i64, i64, i64, i64, double, [4 x i64], i64, i64, i64, i64, i64, i64, i64, i64, i64, i64, [7 x %struct.anon], i64, i64, i64, i64, i64, i64, [4 x %struct.durationStats], i32, i32, i32, i32, i32, i32, i32, i32, i32, i32, i64, i32, i32, i32, i32, i64, i64, i32, i32, i32, i32, i32, ptr, [3 x %struct.clientBufferLimitsConfig], i32, i32, ptr, i32, i32, i32, i32, ptr, ptr, i32, i32, i64, i64, i64, i64, i64, i32, i32, ptr, i32, i32, i64, i64, i64, i64, i64, i32, i32, i64, i32, i32, i32, i32, i32, i32, i32, i32, ptr, i32, i64, i64, i64, i64, ptr, i32, ptr, i32, i32, i32, i64, i64, i64, i64, i32, i32, i32, i32, i32, i32, ptr, i32, i32, ptr, i32, i32, i32, [2 x i32], i32, %struct.redisOpArray, i32, ptr, i32, ptr, i32, i32, i32, i32, i32, i32, i32, [41 x i8], [41 x i8], i64, i64, i64, i64, i32, i32, ptr, i64, i64, i64, i32, i32, i32, i32, i32, i32, i32, i64, ptr, ptr, ptr, ptr, i32, i32, ptr, ptr, i32, i32, i64, i64, i64, ptr, i32, ptr, i64, i32, i32, i32, i64, i32, i32, i32, i32, ptr, i32, i32, [41 x i8], i64, i32, ptr, i32, i32, i64, i64, i32, i32, i32, i32, i32, i64, [3 x i32], i32, i32, i32, [9 x i32], ptr, ptr, i32, i64, ptr, ptr, i32, i32, i32, i32, i64, i64, i64, i64, i64, i64, i64, i64, i64, i64, i32, i32, i64, i64, i32, i64, i64, i64, i64, i64, ptr, ptr, i32, ptr, i32, i32, i32, i64, i64, ptr, ptr, i32, i32, i32, i32, i32, ptr, ptr, ptr, i32, i32, i32, i32, i32, i32, i32, i64, i32, i64, i32, i32, i32, i32, i32, i32, i32, i64, ptr, ptr, i64, ptr, i32, %struct.aclInfo, i32, i64, i32, i32, i32, %struct.redisTLSContextConfig, ptr, ptr, ptr, ptr, ptr, i64, i32, ptr, i32, i32, i32, i64, i32, ptr }
%struct.connListener = type { [16 x i32], i32, ptr, i32, i32, ptr, ptr }
%struct.pause_event = type { i32, i64 }
%struct.malloc_stats = type { i64, i64, i64, i64, i64 }
%struct.anon = type { i64, i64, [16 x i64], i32 }
%struct.durationStats = type { i64, i64, i64 }
%struct.clientBufferLimitsConfig = type { i64, i64, i64 }
%struct.redisOpArray = type { ptr, i32, i32 }
%struct.aclInfo = type { i64, i64, i64, i64 }
%struct.redisTLSContextConfig = type { ptr, ptr, ptr, ptr, ptr, ptr, ptr, ptr, ptr, ptr, ptr, ptr, i32, i32, i32, i32 }
%struct.client = type { i64, i64, ptr, i32, ptr, ptr, ptr, ptr, ptr, i64, i64, i32, ptr, i32, i32, ptr, i64, ptr, ptr, ptr, ptr, i32, i32, i64, ptr, i64, ptr, i64, i64, i64, i32, ptr, i64, i64, i32, i32, i32, i32, i64, i64, ptr, i64, i64, i64, i64, i64, i64, i64, i64, [41 x i8], i32, ptr, i32, i32, %struct.multiState, %struct.blockingState, i64, ptr, ptr, ptr, ptr, ptr, ptr, ptr, ptr, ptr, ptr, ptr, ptr, ptr, ptr, i64, ptr, i64, i32, ptr, ptr, ptr, i64, %struct.listNode, i64, i64, i32, i64, ptr }
%struct.multiState = type { ptr, i32, i32, i32, i64, i32 }
%struct.blockingState = type { i32, i64, i32, ptr, i32, i32, i64, ptr, ptr }
%struct.listNode = type { ptr, ptr, ptr }
%struct.listIter = type { ptr, i32 }

@server = external global %struct.redisServer, align 8

; Function Attrs: nounwind uwtable
define dso_local i32 @shouldStartChildReplication(ptr noundef %mincapa_out, ptr noundef %req_out) #0 {
entry:
  %retval = alloca i32, align 4
  %mincapa_out.addr = alloca ptr, align 8
  %req_out.addr = alloca ptr, align 8
  %idle = alloca i64, align 8
  %max_idle = alloca i64, align 8
  %slaves_waiting = alloca i32, align 4
  %mincapa = alloca i32, align 4
  %req = alloca i32, align 4
  %first = alloca i32, align 4
  %ln = alloca ptr, align 8
  %li = alloca %struct.listIter, align 8
  %slave = alloca ptr, align 8
  store ptr %mincapa_out, ptr %mincapa_out.addr, align 8
  store ptr %req_out, ptr %req_out.addr, align 8
  %call = call i32 @hasActiveChildProcess()
  %tobool = icmp ne i32 %call, 0
  br i1 %tobool, label %if.end32, label %if.then

if.then:                                          ; preds = %entry
  store i64 0, ptr %max_idle, align 8
  store i32 0, ptr %slaves_waiting, align 4
  store i32 1, ptr %first, align 4
  %0 = load ptr, ptr getelementptr inbounds (%struct.redisServer, ptr @server, i32 0, i32 59), align 8
  call void @listRewind(ptr noundef %0, ptr noundef %li)
  br label %while.cond

while.cond:                                       ; preds = %if.end15, %if.then8, %if.then
  %call1 = call ptr @listNext(ptr noundef %li)
  store ptr %call1, ptr %ln, align 8
  %tobool2 = icmp ne ptr %call1, null
  br i1 %tobool2, label %while.body, label %while.end

while.body:                                       ; preds = %while.cond
  %1 = load ptr, ptr %ln, align 8
  %value = getelementptr inbounds %struct.listNode, ptr %1, i32 0, i32 2
  %2 = load ptr, ptr %value, align 8
  store ptr %2, ptr %slave, align 8
  %3 = load ptr, ptr %slave, align 8
  %replstate = getelementptr inbounds %struct.client, ptr %3, i32 0, i32 35
  %4 = load i32, ptr %replstate, align 4
  %cmp = icmp eq i32 %4, 6
  br i1 %cmp, label %if.then3, label %if.end15

if.then3:                                         ; preds = %while.body
  %5 = load i32, ptr %first, align 4
  %tobool4 = icmp ne i32 %5, 0
  br i1 %tobool4, label %if.then5, label %if.else

if.then5:                                         ; preds = %if.then3
  %6 = load ptr, ptr %slave, align 8
  %slave_req = getelementptr inbounds %struct.client, ptr %6, i32 0, i32 53
  %7 = load i32, ptr %slave_req, align 4
  store i32 %7, ptr %req, align 4
  br label %if.end9

if.else:                                          ; preds = %if.then3
  %8 = load i32, ptr %req, align 4
  %9 = load ptr, ptr %slave, align 8
  %slave_req6 = getelementptr inbounds %struct.client, ptr %9, i32 0, i32 53
  %10 = load i32, ptr %slave_req6, align 4
  %cmp7 = icmp ne i32 %8, %10
  br i1 %cmp7, label %if.then8, label %if.end

if.then8:                                         ; preds = %if.else
  br label %while.cond, !llvm.loop !40

if.end:                                           ; preds = %if.else
  br label %if.end9

if.end9:                                          ; preds = %if.end, %if.then5
  %atomic-load = load atomic i64, ptr getelementptr inbounds (%struct.redisServer, ptr @server, i32 0, i32 349) seq_cst, align 8
  %11 = load ptr, ptr %slave, align 8
  %lastinteraction = getelementptr inbounds %struct.client, ptr %11, i32 0, i32 32
  %12 = load i64, ptr %lastinteraction, align 8
  %sub = sub nsw i64 %atomic-load, %12
  store i64 %sub, ptr %idle, align 8
  %13 = load i64, ptr %idle, align 8
  %14 = load i64, ptr %max_idle, align 8
  %cmp10 = icmp sgt i64 %13, %14
  br i1 %cmp10, label %if.then11, label %if.end12

if.then11:                                        ; preds = %if.end9
  %15 = load i64, ptr %idle, align 8
  store i64 %15, ptr %max_idle, align 8
  br label %if.end12

if.end12:                                         ; preds = %if.then11, %if.end9
  %16 = load i32, ptr %slaves_waiting, align 4
  %inc = add nsw i32 %16, 1
  store i32 %inc, ptr %slaves_waiting, align 4
  %17 = load i32, ptr %first, align 4
  %tobool13 = icmp ne i32 %17, 0
  br i1 %tobool13, label %cond.true, label %cond.false

cond.true:                                        ; preds = %if.end12
  %18 = load ptr, ptr %slave, align 8
  %slave_capa = getelementptr inbounds %struct.client, ptr %18, i32 0, i32 52
  %19 = load i32, ptr %slave_capa, align 8
  br label %cond.end

cond.false:                                       ; preds = %if.end12
  %20 = load i32, ptr %mincapa, align 4
  %21 = load ptr, ptr %slave, align 8
  %slave_capa14 = getelementptr inbounds %struct.client, ptr %21, i32 0, i32 52
  %22 = load i32, ptr %slave_capa14, align 8
  %and = and i32 %20, %22
  br label %cond.end

cond.end:                                         ; preds = %cond.false, %cond.true
  %cond = phi i32 [ %19, %cond.true ], [ %and, %cond.false ]
  store i32 %cond, ptr %mincapa, align 4
  store i32 0, ptr %first, align 4
  br label %if.end15

if.end15:                                         ; preds = %cond.end, %while.body
  br label %while.cond, !llvm.loop !40

while.end:                                        ; preds = %while.cond
  %23 = load i32, ptr %slaves_waiting, align 4
  %tobool16 = icmp ne i32 %23, 0
  br i1 %tobool16, label %land.lhs.true, label %if.end31

land.lhs.true:                                    ; preds = %while.end
  %24 = load i32, ptr getelementptr inbounds (%struct.redisServer, ptr @server, i32 0, i32 275), align 4
  %tobool17 = icmp ne i32 %24, 0
  br i1 %tobool17, label %lor.lhs.false, label %if.then24

lor.lhs.false:                                    ; preds = %land.lhs.true
  %25 = load i32, ptr getelementptr inbounds (%struct.redisServer, ptr @server, i32 0, i32 278), align 8
  %cmp18 = icmp sgt i32 %25, 0
  br i1 %cmp18, label %land.lhs.true19, label %lor.lhs.false21

land.lhs.true19:                                  ; preds = %lor.lhs.false
  %26 = load i32, ptr %slaves_waiting, align 4
  %27 = load i32, ptr getelementptr inbounds (%struct.redisServer, ptr @server, i32 0, i32 278), align 8
  %cmp20 = icmp sge i32 %26, %27
  br i1 %cmp20, label %if.then24, label %lor.lhs.false21

lor.lhs.false21:                                  ; preds = %land.lhs.true19, %lor.lhs.false
  %28 = load i64, ptr %max_idle, align 8
  %29 = load i32, ptr getelementptr inbounds (%struct.redisServer, ptr @server, i32 0, i32 277), align 4
  %conv = sext i32 %29 to i64
  %cmp22 = icmp sge i64 %28, %conv
  br i1 %cmp22, label %if.then24, label %if.end31

if.then24:                                        ; preds = %lor.lhs.false21, %land.lhs.true19, %land.lhs.true
  %30 = load ptr, ptr %mincapa_out.addr, align 8
  %tobool25 = icmp ne ptr %30, null
  br i1 %tobool25, label %if.then26, label %if.end27

if.then26:                                        ; preds = %if.then24
  %31 = load i32, ptr %mincapa, align 4
  %32 = load ptr, ptr %mincapa_out.addr, align 8
  store i32 %31, ptr %32, align 4
  br label %if.end27

if.end27:                                         ; preds = %if.then26, %if.then24
  %33 = load ptr, ptr %req_out.addr, align 8
  %tobool28 = icmp ne ptr %33, null
  br i1 %tobool28, label %if.then29, label %if.end30

if.then29:                                        ; preds = %if.end27
  %34 = load i32, ptr %req, align 4
  %35 = load ptr, ptr %req_out.addr, align 8
  store i32 %34, ptr %35, align 4
  br label %if.end30

if.end30:                                         ; preds = %if.then29, %if.end27
  store i32 1, ptr %retval, align 4
  br label %return

if.end31:                                         ; preds = %lor.lhs.false21, %while.end
  br label %if.end32

if.end32:                                         ; preds = %if.end31, %entry
  store i32 0, ptr %retval, align 4
  br label %return

return:                                           ; preds = %if.end32, %if.end30
  %36 = load i32, ptr %retval, align 4
  ret i32 %36
}