; Function Attrs: nounwind uwtable
define dso_local noundef i32 @shouldStartChildReplication(ptr noundef writeonly %mincapa_out, ptr noundef writeonly %req_out) local_unnamed_addr #0 {
entry:
  %li = alloca %struct.listIter, align 8
  %call = tail call i32 @hasActiveChildProcess() #21
  %tobool.not = icmp eq i32 %call, 0
  br i1 %tobool.not, label %if.then, label %return

if.then:                                          ; preds = %entry
  %0 = load ptr, ptr getelementptr inbounds (%struct.redisServer, ptr @server, i64 0, i32 59), align 8
  call void @listRewind(ptr noundef %0, ptr noundef nonnull %li) #21
  br label %while.cond.outer.outer.outer

while.cond.outer.outer.outer:                     ; preds = %if.then, %cond.true
  %slaves_waiting.0.ph.ph.ph = phi i32 [ 0, %if.then ], [ %inc, %cond.true ]
  %mincapa.0.ph.ph.ph = phi i32 [ undef, %if.then ], [ %5, %cond.true ]
  %req.0.ph.ph.ph = phi i32 [ undef, %if.then ], [ %3, %cond.true ]
  %first.0.ph.ph.ph = phi i32 [ 1, %if.then ], [ 0, %cond.true ]
  %max_idle.0.ph.ph.ph = phi i64 [ 0, %if.then ], [ %spec.select, %cond.true ]
  br label %while.cond.outer.outer

while.cond.outer.outer:                           ; preds = %while.cond.outer.outer.outer, %cond.false
  %slaves_waiting.0.ph.ph = phi i32 [ %inc22, %cond.false ], [ %slaves_waiting.0.ph.ph.ph, %while.cond.outer.outer.outer ]
  %mincapa.0.ph.ph = phi i32 [ %and, %cond.false ], [ %mincapa.0.ph.ph.ph, %while.cond.outer.outer.outer ]
  %first.0.ph.ph = phi i32 [ 0, %cond.false ], [ %first.0.ph.ph.ph, %while.cond.outer.outer.outer ]
  %max_idle.0.ph.ph = phi i64 [ %spec.select21, %cond.false ], [ %max_idle.0.ph.ph.ph, %while.cond.outer.outer.outer ]
  br label %while.cond.outer

while.cond.outer:                                 ; preds = %while.body, %while.cond.outer.outer
  %first.0.ph = phi i32 [ %first.0.ph.ph, %while.cond.outer.outer ], [ %first.0, %while.body ]
  br label %while.cond

while.cond:                                       ; preds = %while.cond.outer, %if.else
  %first.0 = phi i32 [ 0, %if.else ], [ %first.0.ph, %while.cond.outer ]
  %call1 = call ptr @listNext(ptr noundef nonnull %li) #21
  %tobool2.not = icmp eq ptr %call1, null
  br i1 %tobool2.not, label %while.end, label %while.body

while.body:                                       ; preds = %while.cond
  %value = getelementptr inbounds i8, ptr %call1, i64 16
  %1 = load ptr, ptr %value, align 8
  %replstate = getelementptr inbounds i8, ptr %1, i64 260
  %2 = load i32, ptr %replstate, align 4
  %cmp = icmp eq i32 %2, 6
  br i1 %cmp, label %if.then3, label %while.cond.outer, !llvm.loop !41

if.then3:                                         ; preds = %while.body
  %tobool4.not = icmp eq i32 %first.0, 0
  %slave_req6 = getelementptr inbounds i8, ptr %1, i64 420
  %3 = load i32, ptr %slave_req6, align 4
  br i1 %tobool4.not, label %if.else, label %cond.true

if.else:                                          ; preds = %if.then3
  %cmp7.not = icmp eq i32 %req.0.ph.ph.ph, %3
  br i1 %cmp7.not, label %cond.false, label %while.cond, !llvm.loop !41

cond.true:                                        ; preds = %if.then3
  %atomic-load = load atomic i64, ptr getelementptr inbounds (%struct.redisServer, ptr @server, i64 0, i32 349) seq_cst, align 8
  %lastinteraction = getelementptr inbounds i8, ptr %1, i64 240
  %4 = load i64, ptr %lastinteraction, align 8
  %sub = sub nsw i64 %atomic-load, %4
  %spec.select = call i64 @llvm.smax.i64(i64 %sub, i64 %max_idle.0.ph.ph)
  %inc = add nsw i32 %slaves_waiting.0.ph.ph, 1
  %slave_capa = getelementptr inbounds i8, ptr %1, i64 416
  %5 = load i32, ptr %slave_capa, align 8
  br label %while.cond.outer.outer.outer, !llvm.loop !41

cond.false:                                       ; preds = %if.else
  %atomic-load17 = load atomic i64, ptr getelementptr inbounds (%struct.redisServer, ptr @server, i64 0, i32 349) seq_cst, align 8
  %lastinteraction18 = getelementptr inbounds i8, ptr %1, i64 240
  %6 = load i64, ptr %lastinteraction18, align 8
  %sub19 = sub nsw i64 %atomic-load17, %6
  %spec.select21 = call i64 @llvm.smax.i64(i64 %sub19, i64 %max_idle.0.ph.ph)
  %inc22 = add nsw i32 %slaves_waiting.0.ph.ph, 1
  %slave_capa14 = getelementptr inbounds i8, ptr %1, i64 416
  %7 = load i32, ptr %slave_capa14, align 8
  %and = and i32 %7, %mincapa.0.ph.ph
  br label %while.cond.outer.outer, !llvm.loop !41

while.end:                                        ; preds = %while.cond
  %tobool16.not = icmp eq i32 %slaves_waiting.0.ph.ph, 0
  br i1 %tobool16.not, label %return, label %land.lhs.true

land.lhs.true:                                    ; preds = %while.end
  %8 = load i32, ptr getelementptr inbounds (%struct.redisServer, ptr @server, i64 0, i32 275), align 4
  %tobool17.not = icmp eq i32 %8, 0
  br i1 %tobool17.not, label %if.then24, label %lor.lhs.false

lor.lhs.false:                                    ; preds = %land.lhs.true
  %9 = load i32, ptr getelementptr inbounds (%struct.redisServer, ptr @server, i64 0, i32 278), align 8
  %cmp18 = icmp slt i32 %9, 1
  %cmp20.not = icmp slt i32 %slaves_waiting.0.ph.ph, %9
  %or.cond = select i1 %cmp18, i1 true, i1 %cmp20.not
  %10 = load i32, ptr getelementptr inbounds (%struct.redisServer, ptr @server, i64 0, i32 277), align 4
  %conv = sext i32 %10 to i64
  %cmp22.not = icmp slt i64 %max_idle.0.ph.ph, %conv
  %or.cond15 = select i1 %or.cond, i1 %cmp22.not, i1 false
  br i1 %or.cond15, label %return, label %if.then24

if.then24:                                        ; preds = %lor.lhs.false, %land.lhs.true
  %tobool25.not = icmp eq ptr %mincapa_out, null
  br i1 %tobool25.not, label %if.end27, label %if.then26

if.then26:                                        ; preds = %if.then24
  store i32 %mincapa.0.ph.ph, ptr %mincapa_out, align 4
  br label %if.end27

if.end27:                                         ; preds = %if.then26, %if.then24
  %tobool28.not = icmp eq ptr %req_out, null
  br i1 %tobool28.not, label %return, label %if.then29

if.then29:                                        ; preds = %if.end27
  store i32 %req.0.ph.ph.ph, ptr %req_out, align 4
  br label %return

return:                                           ; preds = %entry, %while.end, %lor.lhs.false, %if.end27, %if.then29
  %retval.0 = phi i32 [ 1, %if.then29 ], [ 1, %if.end27 ], [ 0, %lor.lhs.false ], [ 0, %while.end ], [ 0, %entry ]
  ret i32 %retval.0
}